; Function Attrs: nounwind uwtable
define noalias nonnull ptr @l_Lean_Linter_initFn____x40_Lean_Linter_Deprecated___hyg_88____lambda__5(ptr noundef %0, ptr noundef %1, ptr noundef %2, ptr readnone captures(none) %3, ptr noundef %4, ptr noundef %5, ptr noundef %6) local_unnamed_addr #0 {
  %8 = load ptr, ptr @l_Lean_Linter_initFn____x40_Lean_Linter_Deprecated___hyg_88____lambda__2___closed__3, align 8, !tbaa !4
  %9 = ptrtoint ptr %4 to i64
  %10 = and i64 %9, 1
  %.not = icmp eq i64 %10, 0
  br i1 %.not, label %11, label %lean_inc.exit21

11:                                               ; preds = %7
  %.val.i = load i32, ptr %4, align 4, !tbaa !8
  %12 = icmp sgt i32 %.val.i, 0
  br i1 %12, label %13, label %15, !prof !11

13:                                               ; preds = %11
  %14 = add nuw i32 %.val.i, 1
  store i32 %14, ptr %4, align 4, !tbaa !8
  br label %lean_inc.exit21

15:                                               ; preds = %11
  %.not.i28 = icmp eq i32 %.val.i, 0
  br i1 %.not.i28, label %lean_inc.exit21, label %16

16:                                               ; preds = %15
  tail call void @lean_inc_ref_cold(ptr noundef nonnull %4) #4
  br label %lean_inc.exit21

lean_inc.exit21:                                  ; preds = %16, %15, %13, %7
  %17 = tail call ptr @l_Lean_logWarning___at_Lean_Linter_initFn____x40_Lean_Linter_Deprecated___hyg_88____spec__2(ptr noundef %8, ptr noundef %4, ptr noundef %5, ptr noundef %6)
  %18 = getelementptr inbounds nuw i8, ptr %17, i64 8
  %19 = load ptr, ptr %18, align 8, !tbaa !4
  %20 = ptrtoint ptr %19 to i64
  %21 = and i64 %20, 1
  %.not35 = icmp eq i64 %21, 0
  br i1 %.not35, label %22, label %lean_inc.exit20

22:                                               ; preds = %lean_inc.exit21
  %.val.i29 = load i32, ptr %19, align 4, !tbaa !8
  %23 = icmp sgt i32 %.val.i29, 0
  br i1 %23, label %24, label %26, !prof !11

24:                                               ; preds = %22
  %25 = add nuw i32 %.val.i29, 1
  store i32 %25, ptr %19, align 4, !tbaa !8
  br label %lean_inc.exit20

26:                                               ; preds = %22
  %.not.i30 = icmp eq i32 %.val.i29, 0
  br i1 %.not.i30, label %lean_inc.exit20, label %27

27:                                               ; preds = %26
  tail call void @lean_inc_ref_cold(ptr noundef nonnull %19) #4
  br label %lean_inc.exit20

lean_inc.exit20:                                  ; preds = %27, %26, %24, %lean_inc.exit21
  %28 = getelementptr inbounds nuw i8, ptr %17, i64 16
  %29 = load ptr, ptr %28, align 8, !tbaa !4
  %30 = ptrtoint ptr %29 to i64
  %31 = and i64 %30, 1
  %.not36 = icmp eq i64 %31, 0
  br i1 %.not36, label %32, label %lean_inc.exit

32:                                               ; preds = %lean_inc.exit20
  %.val.i32 = load i32, ptr %29, align 4, !tbaa !8
  %33 = icmp sgt i32 %.val.i32, 0
  br i1 %33, label %34, label %36, !prof !11

34:                                               ; preds = %32
  %35 = add nuw i32 %.val.i32, 1
  store i32 %35, ptr %29, align 4, !tbaa !8
  br label %lean_inc.exit

36:                                               ; preds = %32
  %.not.i33 = icmp eq i32 %.val.i32, 0
  br i1 %.not.i33, label %lean_inc.exit, label %37

37:                                               ; preds = %36
  tail call void @lean_inc_ref_cold(ptr noundef nonnull %29) #4
  br label %lean_inc.exit

lean_inc.exit:                                    ; preds = %37, %36, %34, %lean_inc.exit20
  %38 = ptrtoint ptr %17 to i64
  %39 = and i64 %38, 1
  %.not37 = icmp eq i64 %39, 0
  br i1 %.not37, label %40, label %lean_dec.exit23

40:                                               ; preds = %lean_inc.exit
  %41 = load i32, ptr %17, align 4, !tbaa !8
  %42 = icmp sgt i32 %41, 1
  br i1 %42, label %43, label %45, !prof !11

43:                                               ; preds = %40
  %44 = add nsw i32 %41, -1
  store i32 %44, ptr %17, align 4, !tbaa !8
  br label %lean_dec.exit23

45:                                               ; preds = %40
  %.not.i = icmp eq i32 %41, 0
  br i1 %.not.i, label %lean_dec.exit23, label %46

46:                                               ; preds = %45
  tail call void @lean_dec_ref_cold(ptr noundef nonnull %17) #4
  br label %lean_dec.exit23

lean_dec.exit23:                                  ; preds = %46, %45, %43, %lean_inc.exit
  tail call void @lean_inc_heartbeat() #4
  %47 = tail call noalias ptr @mi_malloc_small(i64 noundef 32) #4
  %48 = icmp eq ptr %47, null
  br i1 %48, label %49, label %lean_alloc_ctor.exit.i

49:                                               ; preds = %lean_dec.exit23
  tail call void @lean_internal_panic_out_of_memory() #5
  unreachable

lean_alloc_ctor.exit.i:                           ; preds = %lean_dec.exit23
  %50 = getelementptr inbounds nuw i8, ptr %47, i64 4
  store i32 1, ptr %47, align 4, !tbaa !8
  store i32 196640, ptr %50, align 4
  %51 = getelementptr inbounds nuw i8, ptr %47, i64 8
  store ptr %0, ptr %51, align 8, !tbaa !4
  %52 = getelementptr inbounds nuw i8, ptr %47, i64 16
  store ptr %1, ptr %52, align 8, !tbaa !4
  %53 = getelementptr inbounds nuw i8, ptr %47, i64 24
  store ptr %2, ptr %53, align 8, !tbaa !4
  tail call void @lean_inc_heartbeat() #4
  %54 = tail call noalias ptr @mi_malloc_small(i64 noundef 24) #4
  %55 = icmp eq ptr %54, null
  br i1 %55, label %56, label %l_Lean_Linter_initFn____x40_Lean_Linter_Deprecated___hyg_88____lambda__3.exit

56:                                               ; preds = %lean_alloc_ctor.exit.i
  tail call void @lean_internal_panic_out_of_memory() #5
  unreachable

l_Lean_Linter_initFn____x40_Lean_Linter_Deprecated___hyg_88____lambda__3.exit: ; preds = %lean_alloc_ctor.exit.i
  %57 = getelementptr inbounds nuw i8, ptr %54, i64 4
  store i32 1, ptr %54, align 4, !tbaa !8
  store i32 131096, ptr %57, align 4
  %58 = getelementptr inbounds nuw i8, ptr %54, i64 8
  store ptr %47, ptr %58, align 8, !tbaa !4
  %59 = getelementptr inbounds nuw i8, ptr %54, i64 16
  store ptr %29, ptr %59, align 8, !tbaa !4
  br i1 %.not, label %60, label %lean_dec.exit22

60:                                               ; preds = %l_Lean_Linter_initFn____x40_Lean_Linter_Deprecated___hyg_88____lambda__3.exit
  %61 = load i32, ptr %4, align 4, !tbaa !8
  %62 = icmp sgt i32 %61, 1
  br i1 %62, label %63, label %65, !prof !11

63:                                               ; preds = %60
  %64 = add nsw i32 %61, -1
  store i32 %64, ptr %4, align 4, !tbaa !8
  br label %lean_dec.exit22

65:                                               ; preds = %60
  %.not.i24 = icmp eq i32 %61, 0
  br i1 %.not.i24, label %lean_dec.exit22, label %66

66:                                               ; preds = %65
  tail call void @lean_dec_ref_cold(ptr noundef nonnull %4) #4
  br label %lean_dec.exit22

lean_dec.exit22:                                  ; preds = %66, %65, %63, %l_Lean_Linter_initFn____x40_Lean_Linter_Deprecated___hyg_88____lambda__3.exit
  br i1 %.not35, label %67, label %lean_dec.exit

67:                                               ; preds = %lean_dec.exit22
  %68 = load i32, ptr %19, align 4, !tbaa !8
  %69 = icmp sgt i32 %68, 1
  br i1 %69, label %70, label %72, !prof !11

70:                                               ; preds = %67
  %71 = add nsw i32 %68, -1
  store i32 %71, ptr %19, align 4, !tbaa !8
  br label %lean_dec.exit

72:                                               ; preds = %67
  %.not.i26 = icmp eq i32 %68, 0
  br i1 %.not.i26, label %lean_dec.exit, label %73

73:                                               ; preds = %72
  tail call void @lean_dec_ref_cold(ptr noundef nonnull %19) #4
  br label %lean_dec.exit

lean_dec.exit:                                    ; preds = %73, %72, %70, %lean_dec.exit22
  ret ptr %54
}